target datalayout = "e-m:e-p270:32:32-p271:32:32-p272:64:64-i64:64-i128:128-f80:128-n8:16:32:64-S128"
target triple = "x86_64-pc-linux-gnu"

%struct.prov_cipher_ctx_st = type { [16 x i8], [16 x i8], [16 x i8], ptr, %union.anon, i32, i64, i64, i64, i64, i32, i8, i32, ptr, i32, i64, i32, i64, i32, ptr, ptr, ptr }
%union.anon = type { ptr }
%struct.prov_aes_xts_ctx_st = type { %struct.prov_cipher_ctx_st, %union.anon.0, %union.anon.0, %struct.xts128_context, ptr, %union.anon.1 }
%union.anon.0 = type { double, [240 x i8] }
%struct.xts128_context = type { ptr, ptr, ptr, ptr }
%union.anon.1 = type { i32 }

; Function Attrs: nounwind uwtable
define internal i32 @cipher_hw_aesni_xts_initkey(ptr noundef %0, ptr noundef %1, i64 noundef %2) #0 {
  %4 = alloca ptr, align 8
  %5 = alloca ptr, align 8
  %6 = alloca i64, align 8
  %7 = alloca ptr, align 8
  %8 = alloca i64, align 8
  %9 = alloca i64, align 8
  store ptr %0, ptr %4, align 8, !tbaa !9
  store ptr %1, ptr %5, align 8, !tbaa !12
  store i64 %2, ptr %6, align 8, !tbaa !3
  call void @llvm.lifetime.start.p0(i64 8, ptr %7) #4
  %10 = load ptr, ptr %4, align 8, !tbaa !9
  store ptr %10, ptr %7, align 8, !tbaa !14
  call void @llvm.lifetime.start.p0(i64 8, ptr %8) #4
  %11 = load i64, ptr %6, align 8, !tbaa !3
  %12 = udiv i64 %11, 2
  store i64 %12, ptr %8, align 8, !tbaa !3
  call void @llvm.lifetime.start.p0(i64 8, ptr %9) #4
  %13 = load i64, ptr %8, align 8, !tbaa !3
  %14 = mul i64 %13, 8
  store i64 %14, ptr %9, align 8, !tbaa !3
  %15 = load ptr, ptr %4, align 8, !tbaa !9
  %16 = getelementptr inbounds nuw %struct.prov_cipher_ctx_st, ptr %15, i32 0, i32 11
  %17 = load i8, ptr %16, align 4
  %18 = lshr i8 %17, 1
  %19 = and i8 %18, 1
  %20 = zext i8 %19 to i32
  %21 = icmp ne i32 %20, 0
  br i1 %21, label %22, label %32

22:                                               ; preds = %3
  %23 = load ptr, ptr %5, align 8, !tbaa !12
  %24 = load i64, ptr %9, align 8, !tbaa !3
  %25 = trunc i64 %24 to i32
  %26 = load ptr, ptr %7, align 8, !tbaa !14
  %27 = getelementptr inbounds nuw %struct.prov_aes_xts_ctx_st, ptr %26, i32 0, i32 1
  %28 = call i32 @aesni_set_encrypt_key(ptr noundef %23, i32 noundef %25, ptr noundef %27)
  %29 = load ptr, ptr %7, align 8, !tbaa !14
  %30 = getelementptr inbounds nuw %struct.prov_aes_xts_ctx_st, ptr %29, i32 0, i32 3
  %31 = getelementptr inbounds nuw %struct.xts128_context, ptr %30, i32 0, i32 2
  store ptr @aesni_encrypt, ptr %31, align 8, !tbaa !16
  br label %42

32:                                               ; preds = %3
  %33 = load ptr, ptr %5, align 8, !tbaa !12
  %34 = load i64, ptr %9, align 8, !tbaa !3
  %35 = trunc i64 %34 to i32
  %36 = load ptr, ptr %7, align 8, !tbaa !14
  %37 = getelementptr inbounds nuw %struct.prov_aes_xts_ctx_st, ptr %36, i32 0, i32 1
  %38 = call i32 @aesni_set_decrypt_key(ptr noundef %33, i32 noundef %35, ptr noundef %37)
  %39 = load ptr, ptr %7, align 8, !tbaa !14
  %40 = getelementptr inbounds nuw %struct.prov_aes_xts_ctx_st, ptr %39, i32 0, i32 3
  %41 = getelementptr inbounds nuw %struct.xts128_context, ptr %40, i32 0, i32 2
  store ptr @aesni_decrypt, ptr %41, align 8, !tbaa !16
  br label %42

42:                                               ; preds = %32, %22
  %43 = load ptr, ptr %5, align 8, !tbaa !12
  %44 = load i64, ptr %8, align 8, !tbaa !3
  %45 = getelementptr inbounds nuw i8, ptr %43, i64 %44
  %46 = load i64, ptr %9, align 8, !tbaa !3
  %47 = trunc i64 %46 to i32
  %48 = load ptr, ptr %7, align 8, !tbaa !14
  %49 = getelementptr inbounds nuw %struct.prov_aes_xts_ctx_st, ptr %48, i32 0, i32 2
  %50 = call i32 @aesni_set_encrypt_key(ptr noundef %45, i32 noundef %47, ptr noundef %49)
  %51 = load ptr, ptr %7, align 8, !tbaa !14
  %52 = getelementptr inbounds nuw %struct.prov_aes_xts_ctx_st, ptr %51, i32 0, i32 3
  %53 = getelementptr inbounds nuw %struct.xts128_context, ptr %52, i32 0, i32 3
  store ptr @aesni_encrypt, ptr %53, align 8, !tbaa !22
  %54 = load ptr, ptr %7, align 8, !tbaa !14
  %55 = getelementptr inbounds nuw %struct.prov_aes_xts_ctx_st, ptr %54, i32 0, i32 1
  %56 = load ptr, ptr %7, align 8, !tbaa !14
  %57 = getelementptr inbounds nuw %struct.prov_aes_xts_ctx_st, ptr %56, i32 0, i32 3
  %58 = getelementptr inbounds nuw %struct.xts128_context, ptr %57, i32 0, i32 0
  store ptr %55, ptr %58, align 8, !tbaa !23
  %59 = load ptr, ptr %7, align 8, !tbaa !14
  %60 = getelementptr inbounds nuw %struct.prov_aes_xts_ctx_st, ptr %59, i32 0, i32 2
  %61 = load ptr, ptr %7, align 8, !tbaa !14
  %62 = getelementptr inbounds nuw %struct.prov_aes_xts_ctx_st, ptr %61, i32 0, i32 3
  %63 = getelementptr inbounds nuw %struct.xts128_context, ptr %62, i32 0, i32 1
  store ptr %60, ptr %63, align 8, !tbaa !24
  %64 = load ptr, ptr %4, align 8, !tbaa !9
  %65 = getelementptr inbounds nuw %struct.prov_cipher_ctx_st, ptr %64, i32 0, i32 11
  %66 = load i8, ptr %65, align 4
  %67 = lshr i8 %66, 1
  %68 = and i8 %67, 1
  %69 = zext i8 %68 to i32
  %70 = icmp ne i32 %69, 0
  %71 = select i1 %70, ptr @aesni_xts_encrypt, ptr @aesni_xts_decrypt
  %72 = load ptr, ptr %7, align 8, !tbaa !14
  %73 = getelementptr inbounds nuw %struct.prov_aes_xts_ctx_st, ptr %72, i32 0, i32 4
  store ptr %71, ptr %73, align 8, !tbaa !25
  call void @llvm.lifetime.end.p0(i64 8, ptr %9) #4
  call void @llvm.lifetime.end.p0(i64 8, ptr %8) #4
  call void @llvm.lifetime.end.p0(i64 8, ptr %7) #4
  ret i32 1
}