; Function Attrs: nounwind uwtable
define internal noundef i32 @cipher_hw_aesni_xts_initkey(ptr noundef %0, ptr noundef %1, i64 noundef %2) #1 {
  %4 = lshr i64 %2, 1
  %5 = shl i64 %4, 3
  %6 = getelementptr inbounds nuw i8, ptr %0, i64 108
  %7 = load i8, ptr %6, align 4
  %8 = and i8 %7, 2
  %.not = icmp eq i8 %8, 0
  %9 = trunc i64 %5 to i32
  %10 = getelementptr inbounds nuw i8, ptr %0, i64 192
  br i1 %.not, label %13, label %11

11:                                               ; preds = %3
  %12 = tail call i32 @aesni_set_encrypt_key(ptr noundef %1, i32 noundef %9, ptr noundef nonnull %10) #5
  br label %15

13:                                               ; preds = %3
  %14 = tail call i32 @aesni_set_decrypt_key(ptr noundef %1, i32 noundef %9, ptr noundef nonnull %10) #5
  br label %15

15:                                               ; preds = %13, %11
  %aesni_encrypt.sink = phi ptr [ @aesni_decrypt, %13 ], [ @aesni_encrypt, %11 ]
  %16 = getelementptr inbounds nuw i8, ptr %0, i64 704
  store ptr %aesni_encrypt.sink, ptr %16, align 8, !tbaa !7
  %17 = getelementptr inbounds nuw i8, ptr %1, i64 %4
  %18 = getelementptr inbounds nuw i8, ptr %0, i64 440
  %19 = tail call i32 @aesni_set_encrypt_key(ptr noundef %17, i32 noundef %9, ptr noundef nonnull %18) #5
  %20 = getelementptr inbounds nuw i8, ptr %0, i64 688
  %21 = getelementptr inbounds nuw i8, ptr %0, i64 712
  store ptr @aesni_encrypt, ptr %21, align 8, !tbaa !16
  %22 = getelementptr inbounds nuw i8, ptr %0, i64 192
  store ptr %22, ptr %20, align 8, !tbaa !17
  %23 = getelementptr inbounds nuw i8, ptr %0, i64 696
  store ptr %18, ptr %23, align 8, !tbaa !18
  %24 = load i8, ptr %6, align 4
  %25 = and i8 %24, 2
  %.not22 = icmp eq i8 %25, 0
  %26 = select i1 %.not22, ptr @aesni_xts_decrypt, ptr @aesni_xts_encrypt
  %27 = getelementptr inbounds nuw i8, ptr %0, i64 720
  store ptr %26, ptr %27, align 8, !tbaa !19
  ret i32 1
}